target datalayout = "e-m:e-p270:32:32-p271:32:32-p272:64:64-i64:64-i128:128-f80:128-n8:16:32:64-S128"
target triple = "x86_64-pc-linux-gnu"

%struct.H5G_bt2_ud_common_t = type { ptr, ptr, ptr, i32, i64, ptr, ptr }
%struct.H5G_dense_bt2_name_rec_t = type { [7 x i8], i32 }
%struct.H5G_fh_ud_cmp_t = type { ptr, ptr, ptr, ptr, i32 }

@H5G_init_g = external global i8, align 1
@H5_libterm_g = external global i8, align 1
@.str.2 = private unnamed_addr constant [103 x i8] c"generated/home/dtcxzyw/WorkSpace/Projects/compilers/llvm-opt-benchmark/bench/hdf5/hdf5/src/H5Gbtree2.c\00", align 1
@__func__.H5G__dense_btree2_name_compare = private unnamed_addr constant [31 x i8] c"H5G__dense_btree2_name_compare\00", align 1
@H5E_HEAP_g = external global i64, align 8
@H5E_CANTCOMPARE_g = external global i64, align 8
@.str.3 = private unnamed_addr constant [29 x i8] c"can't compare btree2 records\00", align 1

; Function Attrs: nounwind uwtable
define internal i32 @H5G__dense_btree2_name_compare(ptr noundef %0, ptr noundef %1, ptr noundef %2) #0 {
  %4 = alloca i32, align 4
  %5 = alloca ptr, align 8
  %6 = alloca ptr, align 8
  %7 = alloca ptr, align 8
  %8 = alloca ptr, align 8
  %9 = alloca ptr, align 8
  %10 = alloca i32, align 4
  %11 = alloca i8, align 1
  %12 = alloca %struct.H5G_fh_ud_cmp_t, align 8
  %13 = alloca i32, align 4
  store ptr %0, ptr %5, align 8, !tbaa !3
  store ptr %1, ptr %6, align 8, !tbaa !3
  store ptr %2, ptr %7, align 8, !tbaa !25
  call void @llvm.lifetime.start.p0(i64 8, ptr %8) #7
  %14 = load ptr, ptr %5, align 8, !tbaa !3
  store ptr %14, ptr %8, align 8, !tbaa !27
  call void @llvm.lifetime.start.p0(i64 8, ptr %9) #7
  %15 = load ptr, ptr %6, align 8, !tbaa !3
  store ptr %15, ptr %9, align 8, !tbaa !9
  call void @llvm.lifetime.start.p0(i64 4, ptr %10) #7
  store i32 0, ptr %10, align 4, !tbaa !29
  call void @llvm.lifetime.start.p0(i64 1, ptr %11) #7
  store i8 0, ptr %11, align 1, !tbaa !11
  %16 = load i8, ptr @H5G_init_g, align 1, !tbaa !11, !range !13, !noundef !14
  %17 = trunc i8 %16 to i1
  br i1 %17, label %22, label %18

18:                                               ; preds = %3
  %19 = load i8, ptr @H5_libterm_g, align 1, !tbaa !11, !range !13, !noundef !14
  %20 = trunc i8 %19 to i1
  %21 = xor i1 %20, true
  br label %22

22:                                               ; preds = %18, %3
  %23 = phi i1 [ true, %3 ], [ %21, %18 ]
  %24 = xor i1 %23, true
  %25 = xor i1 %24, true
  %26 = zext i1 %25 to i32
  %27 = sext i32 %26 to i64
  %28 = call i64 @llvm.expect.i64(i64 %27, i64 1)
  %29 = icmp ne i64 %28, 0
  br i1 %29, label %30, label %105

30:                                               ; preds = %22
  %31 = load ptr, ptr %8, align 8, !tbaa !27
  %32 = getelementptr inbounds nuw %struct.H5G_bt2_ud_common_t, ptr %31, i32 0, i32 3
  %33 = load i32, ptr %32, align 8, !tbaa !30
  %34 = load ptr, ptr %9, align 8, !tbaa !9
  %35 = getelementptr inbounds nuw %struct.H5G_dense_bt2_name_rec_t, ptr %34, i32 0, i32 1
  %36 = load i32, ptr %35, align 4, !tbaa !23
  %37 = icmp ult i32 %33, %36
  br i1 %37, label %38, label %40

38:                                               ; preds = %30
  %39 = load ptr, ptr %7, align 8, !tbaa !25
  store i32 -1, ptr %39, align 4, !tbaa !29
  br label %103

40:                                               ; preds = %30
  %41 = load ptr, ptr %8, align 8, !tbaa !27
  %42 = getelementptr inbounds nuw %struct.H5G_bt2_ud_common_t, ptr %41, i32 0, i32 3
  %43 = load i32, ptr %42, align 8, !tbaa !30
  %44 = load ptr, ptr %9, align 8, !tbaa !9
  %45 = getelementptr inbounds nuw %struct.H5G_dense_bt2_name_rec_t, ptr %44, i32 0, i32 1
  %46 = load i32, ptr %45, align 4, !tbaa !23
  %47 = icmp ugt i32 %43, %46
  br i1 %47, label %48, label %50

48:                                               ; preds = %40
  %49 = load ptr, ptr %7, align 8, !tbaa !25
  store i32 1, ptr %49, align 4, !tbaa !29
  br label %102

50:                                               ; preds = %40
  call void @llvm.lifetime.start.p0(i64 40, ptr %12) #7
  %51 = load ptr, ptr %8, align 8, !tbaa !27
  %52 = getelementptr inbounds nuw %struct.H5G_bt2_ud_common_t, ptr %51, i32 0, i32 0
  %53 = load ptr, ptr %52, align 8, !tbaa !31
  %54 = getelementptr inbounds nuw %struct.H5G_fh_ud_cmp_t, ptr %12, i32 0, i32 0
  store ptr %53, ptr %54, align 8, !tbaa !32
  %55 = load ptr, ptr %8, align 8, !tbaa !27
  %56 = getelementptr inbounds nuw %struct.H5G_bt2_ud_common_t, ptr %55, i32 0, i32 2
  %57 = load ptr, ptr %56, align 8, !tbaa !34
  %58 = getelementptr inbounds nuw %struct.H5G_fh_ud_cmp_t, ptr %12, i32 0, i32 1
  store ptr %57, ptr %58, align 8, !tbaa !35
  %59 = load ptr, ptr %8, align 8, !tbaa !27
  %60 = getelementptr inbounds nuw %struct.H5G_bt2_ud_common_t, ptr %59, i32 0, i32 5
  %61 = load ptr, ptr %60, align 8, !tbaa !36
  %62 = getelementptr inbounds nuw %struct.H5G_fh_ud_cmp_t, ptr %12, i32 0, i32 2
  store ptr %61, ptr %62, align 8, !tbaa !37
  %63 = load ptr, ptr %8, align 8, !tbaa !27
  %64 = getelementptr inbounds nuw %struct.H5G_bt2_ud_common_t, ptr %63, i32 0, i32 6
  %65 = load ptr, ptr %64, align 8, !tbaa !38
  %66 = getelementptr inbounds nuw %struct.H5G_fh_ud_cmp_t, ptr %12, i32 0, i32 3
  store ptr %65, ptr %66, align 8, !tbaa !39
  %67 = getelementptr inbounds nuw %struct.H5G_fh_ud_cmp_t, ptr %12, i32 0, i32 4
  store i32 0, ptr %67, align 8, !tbaa !40
  %68 = load ptr, ptr %8, align 8, !tbaa !27
  %69 = getelementptr inbounds nuw %struct.H5G_bt2_ud_common_t, ptr %68, i32 0, i32 1
  %70 = load ptr, ptr %69, align 8, !tbaa !41
  %71 = load ptr, ptr %9, align 8, !tbaa !9
  %72 = getelementptr inbounds nuw %struct.H5G_dense_bt2_name_rec_t, ptr %71, i32 0, i32 0
  %73 = getelementptr inbounds [7 x i8], ptr %72, i64 0, i64 0
  %74 = call i32 @H5HF_op(ptr noundef %70, ptr noundef %73, ptr noundef @H5G__dense_fh_name_cmp, ptr noundef %12)
  %75 = icmp slt i32 %74, 0
  br i1 %75, label %76, label %95

76:                                               ; preds = %50
  br label %77

77:                                               ; preds = %76
  br label %78

78:                                               ; preds = %77
  br label %79

79:                                               ; preds = %78
  %80 = load i64, ptr @H5E_HEAP_g, align 8, !tbaa !42
  %81 = load i64, ptr @H5E_CANTCOMPARE_g, align 8, !tbaa !42
  %82 = call i32 (ptr, ptr, i32, i64, i64, ptr, ...) @H5E_printf_stack(ptr noundef @.str.2, ptr noundef @__func__.H5G__dense_btree2_name_compare, i32 noundef 241, i64 noundef %80, i64 noundef %81, ptr noundef @.str.3)
  br label %83

83:                                               ; preds = %79
  br label %84

84:                                               ; preds = %83
  store i8 1, ptr %11, align 1, !tbaa !11
  %85 = load i8, ptr %11, align 1, !tbaa !11, !range !13, !noundef !14
  %86 = trunc i8 %85 to i1
  %87 = zext i1 %86 to i8
  store i8 %87, ptr %11, align 1, !tbaa !11
  br label %88

88:                                               ; preds = %84
  br label %89

89:                                               ; preds = %88
  br label %90

90:                                               ; preds = %89
  store i32 -1, ptr %10, align 4, !tbaa !29
  store i32 10, ptr %13, align 4
  br label %99

91:                                               ; No predecessors!
  br label %92

92:                                               ; preds = %91
  br label %93

93:                                               ; preds = %92
  br label %94

94:                                               ; preds = %93
  br label %95

95:                                               ; preds = %94, %50
  %96 = getelementptr inbounds nuw %struct.H5G_fh_ud_cmp_t, ptr %12, i32 0, i32 4
  %97 = load i32, ptr %96, align 8, !tbaa !40
  %98 = load ptr, ptr %7, align 8, !tbaa !25
  store i32 %97, ptr %98, align 4, !tbaa !29
  store i32 0, ptr %13, align 4
  br label %99

99:                                               ; preds = %90, %95
  call void @llvm.lifetime.end.p0(i64 40, ptr %12) #7
  %100 = load i32, ptr %13, align 4
  switch i32 %100, label %107 [
    i32 0, label %101
    i32 10, label %104
  ]

101:                                              ; preds = %99
  br label %102

102:                                              ; preds = %101, %48
  br label %103

103:                                              ; preds = %102, %38
  br label %104

104:                                              ; preds = %103, %99
  br label %105

105:                                              ; preds = %104, %22
  %106 = load i32, ptr %10, align 4, !tbaa !29
  store i32 %106, ptr %4, align 4
  store i32 1, ptr %13, align 4
  br label %107

107:                                              ; preds = %105, %99
  call void @llvm.lifetime.end.p0(i64 1, ptr %11) #7
  call void @llvm.lifetime.end.p0(i64 4, ptr %10) #7
  call void @llvm.lifetime.end.p0(i64 8, ptr %9) #7
  call void @llvm.lifetime.end.p0(i64 8, ptr %8) #7
  %108 = load i32, ptr %4, align 4
  ret i32 %108
}