; Function Attrs: nounwind uwtable
define internal range(i32 -1, 1) i32 @H5G__dense_btree2_name_compare(ptr noundef readonly captures(none) %0, ptr noundef %1, ptr noundef writeonly captures(none) %2) #1 {
  %4 = alloca %struct.H5G_fh_ud_cmp_t, align 8
  %5 = load i8, ptr @H5G_init_g, align 1, !tbaa !3, !range !7, !noundef !8
  %6 = trunc nuw i8 %5 to i1
  %7 = load i8, ptr @H5_libterm_g, align 1, !range !7
  %8 = trunc nuw i8 %7 to i1
  %9 = xor i1 %8, true
  %10 = select i1 %6, i1 true, i1 %9
  br i1 %10, label %11, label %44, !prof !9

11:                                               ; preds = %3
  %12 = getelementptr inbounds nuw i8, ptr %0, i64 24
  %13 = load i32, ptr %12, align 8, !tbaa !21
  %14 = getelementptr inbounds nuw i8, ptr %1, i64 8
  %15 = load i32, ptr %14, align 4, !tbaa !19
  %16 = icmp ult i32 %13, %15
  br i1 %16, label %17, label %18

17:                                               ; preds = %11
  store i32 -1, ptr %2, align 4, !tbaa !22
  br label %44

18:                                               ; preds = %11
  %19 = icmp ugt i32 %13, %15
  br i1 %19, label %20, label %21

20:                                               ; preds = %18
  store i32 1, ptr %2, align 4, !tbaa !22
  br label %44

21:                                               ; preds = %18
  call void @llvm.lifetime.start.p0(i64 40, ptr nonnull %4) #10
  %22 = load ptr, ptr %0, align 8, !tbaa !23
  store ptr %22, ptr %4, align 8, !tbaa !24
  %23 = getelementptr inbounds nuw i8, ptr %0, i64 16
  %24 = load ptr, ptr %23, align 8, !tbaa !26
  %25 = getelementptr inbounds nuw i8, ptr %4, i64 8
  store ptr %24, ptr %25, align 8, !tbaa !27
  %26 = getelementptr inbounds nuw i8, ptr %0, i64 40
  %27 = load ptr, ptr %26, align 8, !tbaa !28
  %28 = getelementptr inbounds nuw i8, ptr %4, i64 16
  store ptr %27, ptr %28, align 8, !tbaa !29
  %29 = getelementptr inbounds nuw i8, ptr %0, i64 48
  %30 = load ptr, ptr %29, align 8, !tbaa !30
  %31 = getelementptr inbounds nuw i8, ptr %4, i64 24
  store ptr %30, ptr %31, align 8, !tbaa !31
  %32 = getelementptr inbounds nuw i8, ptr %4, i64 32
  store i32 0, ptr %32, align 8, !tbaa !32
  %33 = getelementptr inbounds nuw i8, ptr %0, i64 8
  %34 = load ptr, ptr %33, align 8, !tbaa !33
  %35 = call i32 @H5HF_op(ptr noundef %34, ptr noundef nonnull %1, ptr noundef nonnull @H5G__dense_fh_name_cmp, ptr noundef nonnull %4) #10
  %36 = icmp slt i32 %35, 0
  br i1 %36, label %37, label %41

37:                                               ; preds = %21
  %38 = load i64, ptr @H5E_HEAP_g, align 8, !tbaa !34
  %39 = load i64, ptr @H5E_CANTCOMPARE_g, align 8, !tbaa !34
  %40 = call i32 (ptr, ptr, i32, i64, i64, ptr, ...) @H5E_printf_stack(ptr noundef nonnull @.str.2, ptr noundef nonnull @__func__.H5G__dense_btree2_name_compare, i32 noundef 241, i64 noundef %38, i64 noundef %39, ptr noundef nonnull @.str.3) #10
  br label %43

41:                                               ; preds = %21
  %42 = load i32, ptr %32, align 8, !tbaa !32
  store i32 %42, ptr %2, align 4, !tbaa !22
  br label %43

43:                                               ; preds = %41, %37
  %.1 = phi i32 [ -1, %37 ], [ 0, %41 ]
  call void @llvm.lifetime.end.p0(i64 40, ptr nonnull %4) #10
  br label %44

44:                                               ; preds = %43, %3, %17, %20
  %.019 = phi i32 [ 0, %17 ], [ 0, %20 ], [ %.1, %43 ], [ 0, %3 ]
  ret i32 %.019
}